target datalayout = "e-m:e-p270:32:32-p271:32:32-p272:64:64-i64:64-i128:128-f80:128-n8:16:32:64-S128"
target triple = "x86_64-pc-linux-gnu"

@hf_r3_commandlength = internal global i32 0, align 4
@hf_r3_command = internal global i32 0, align 4
@hf_r3_setdate_year = internal global i32 0, align 4
@hf_r3_setdate_month = internal global i32 0, align 4
@hf_r3_setdate_day = internal global i32 0, align 4
@hf_r3_setdate_dow = internal global i32 0, align 4
@hf_r3_setdate_hours = internal global i32 0, align 4
@hf_r3_setdate_minutes = internal global i32 0, align 4
@hf_r3_setdate_seconds = internal global i32 0, align 4
@ett_r3setdatetime = internal global i32 0, align 4
@.str.2130 = private unnamed_addr constant [49 x i8] c"Set Date/Time (%02u/%02u/%02u-%u %02u:%02u:%02u)\00", align 1

; Function Attrs: null_pointer_is_valid sspstrong uwtable
define internal void @dissect_r3_cmd_setdatetime(ptr noundef %0, i32 noundef %1, i32 noundef %2, ptr noundef %3, ptr noundef %4) #0 {
  %6 = alloca ptr, align 8
  %7 = alloca i32, align 4
  %8 = alloca i32, align 4
  %9 = alloca ptr, align 8
  %10 = alloca ptr, align 8
  %11 = alloca ptr, align 8
  %12 = alloca i8, align 1
  %13 = alloca ptr, align 8
  %14 = alloca i32, align 4
  store ptr %0, ptr %6, align 8
  store i32 %1, ptr %7, align 4
  store i32 %2, ptr %8, align 4
  store ptr %3, ptr %9, align 8
  store ptr %4, ptr %10, align 8
  call void @llvm.lifetime.start.p0(i64 8, ptr %11) #5
  call void @llvm.lifetime.start.p0(i64 1, ptr %12) #5
  call void @llvm.lifetime.start.p0(i64 8, ptr %13) #5
  %15 = load ptr, ptr %10, align 8
  %16 = icmp ne ptr %15, null
  br i1 %16, label %18, label %17

17:                                               ; preds = %5
  store i32 1, ptr %14, align 4
  br label %95

18:                                               ; preds = %5
  %19 = load ptr, ptr %6, align 8
  %20 = load i32, ptr %7, align 4
  %21 = add i32 %20, 0
  %22 = call zeroext i8 @tvb_get_uint8(ptr noundef %19, i32 noundef %21)
  store i8 %22, ptr %12, align 1
  %23 = load ptr, ptr %6, align 8
  %24 = load i32, ptr %7, align 4
  %25 = add i32 %24, 2
  %26 = load i8, ptr %12, align 1
  %27 = zext i8 %26 to i32
  %28 = sub i32 %27, 2
  %29 = call ptr @tvb_new_subset_length(ptr noundef %23, i32 noundef %25, i32 noundef %28)
  store ptr %29, ptr %13, align 8
  %30 = load ptr, ptr %10, align 8
  %31 = load i32, ptr @hf_r3_commandlength, align 4
  %32 = load ptr, ptr %6, align 8
  %33 = load i32, ptr %7, align 4
  %34 = add i32 %33, 0
  %35 = call ptr @proto_tree_add_item(ptr noundef %30, i32 noundef %31, ptr noundef %32, i32 noundef %34, i32 noundef 1, i32 noundef -2147483648)
  %36 = load ptr, ptr %10, align 8
  %37 = load i32, ptr @hf_r3_command, align 4
  %38 = load ptr, ptr %6, align 8
  %39 = load i32, ptr %7, align 4
  %40 = add i32 %39, 1
  %41 = call ptr @proto_tree_add_item(ptr noundef %36, i32 noundef %37, ptr noundef %38, i32 noundef %40, i32 noundef 1, i32 noundef -2147483648)
  %42 = load ptr, ptr %10, align 8
  %43 = load ptr, ptr %13, align 8
  %44 = load i32, ptr @ett_r3setdatetime, align 4
  %45 = load ptr, ptr %13, align 8
  %46 = call zeroext i8 @tvb_get_uint8(ptr noundef %45, i32 noundef 0)
  %47 = zext i8 %46 to i32
  %48 = load ptr, ptr %13, align 8
  %49 = call zeroext i8 @tvb_get_uint8(ptr noundef %48, i32 noundef 1)
  %50 = zext i8 %49 to i32
  %51 = load ptr, ptr %13, align 8
  %52 = call zeroext i8 @tvb_get_uint8(ptr noundef %51, i32 noundef 2)
  %53 = zext i8 %52 to i32
  %54 = load ptr, ptr %13, align 8
  %55 = call zeroext i8 @tvb_get_uint8(ptr noundef %54, i32 noundef 3)
  %56 = zext i8 %55 to i32
  %57 = load ptr, ptr %13, align 8
  %58 = call zeroext i8 @tvb_get_uint8(ptr noundef %57, i32 noundef 4)
  %59 = zext i8 %58 to i32
  %60 = load ptr, ptr %13, align 8
  %61 = call zeroext i8 @tvb_get_uint8(ptr noundef %60, i32 noundef 5)
  %62 = zext i8 %61 to i32
  %63 = load ptr, ptr %13, align 8
  %64 = call zeroext i8 @tvb_get_uint8(ptr noundef %63, i32 noundef 6)
  %65 = zext i8 %64 to i32
  %66 = call ptr (ptr, ptr, i32, i32, i32, ptr, ptr, ...) @proto_tree_add_subtree_format(ptr noundef %42, ptr noundef %43, i32 noundef 0, i32 noundef -1, i32 noundef %44, ptr noundef null, ptr noundef @.str.2130, i32 noundef %47, i32 noundef %50, i32 noundef %53, i32 noundef %56, i32 noundef %59, i32 noundef %62, i32 noundef %65)
  store ptr %66, ptr %11, align 8
  %67 = load ptr, ptr %11, align 8
  %68 = load i32, ptr @hf_r3_setdate_year, align 4
  %69 = load ptr, ptr %13, align 8
  %70 = call ptr @proto_tree_add_item(ptr noundef %67, i32 noundef %68, ptr noundef %69, i32 noundef 0, i32 noundef 1, i32 noundef -2147483648)
  %71 = load ptr, ptr %11, align 8
  %72 = load i32, ptr @hf_r3_setdate_month, align 4
  %73 = load ptr, ptr %13, align 8
  %74 = call ptr @proto_tree_add_item(ptr noundef %71, i32 noundef %72, ptr noundef %73, i32 noundef 1, i32 noundef 1, i32 noundef -2147483648)
  %75 = load ptr, ptr %11, align 8
  %76 = load i32, ptr @hf_r3_setdate_day, align 4
  %77 = load ptr, ptr %13, align 8
  %78 = call ptr @proto_tree_add_item(ptr noundef %75, i32 noundef %76, ptr noundef %77, i32 noundef 2, i32 noundef 1, i32 noundef -2147483648)
  %79 = load ptr, ptr %11, align 8
  %80 = load i32, ptr @hf_r3_setdate_dow, align 4
  %81 = load ptr, ptr %13, align 8
  %82 = call ptr @proto_tree_add_item(ptr noundef %79, i32 noundef %80, ptr noundef %81, i32 noundef 3, i32 noundef 1, i32 noundef -2147483648)
  %83 = load ptr, ptr %11, align 8
  %84 = load i32, ptr @hf_r3_setdate_hours, align 4
  %85 = load ptr, ptr %13, align 8
  %86 = call ptr @proto_tree_add_item(ptr noundef %83, i32 noundef %84, ptr noundef %85, i32 noundef 4, i32 noundef 1, i32 noundef -2147483648)
  %87 = load ptr, ptr %11, align 8
  %88 = load i32, ptr @hf_r3_setdate_minutes, align 4
  %89 = load ptr, ptr %13, align 8
  %90 = call ptr @proto_tree_add_item(ptr noundef %87, i32 noundef %88, ptr noundef %89, i32 noundef 5, i32 noundef 1, i32 noundef -2147483648)
  %91 = load ptr, ptr %11, align 8
  %92 = load i32, ptr @hf_r3_setdate_seconds, align 4
  %93 = load ptr, ptr %13, align 8
  %94 = call ptr @proto_tree_add_item(ptr noundef %91, i32 noundef %92, ptr noundef %93, i32 noundef 6, i32 noundef 1, i32 noundef -2147483648)
  store i32 0, ptr %14, align 4
  br label %95

95:                                               ; preds = %18, %17
  call void @llvm.lifetime.end.p0(i64 8, ptr %13) #5
  call void @llvm.lifetime.end.p0(i64 1, ptr %12) #5
  call void @llvm.lifetime.end.p0(i64 8, ptr %11) #5
  %96 = load i32, ptr %14, align 4
  switch i32 %96, label %98 [
    i32 0, label %97
    i32 1, label %97
  ]

97:                                               ; preds = %95, %95
  ret void

98:                                               ; preds = %95
  unreachable
}